; Function Attrs: mustprogress uwtable
define hidden noundef nonnull align 8 dereferenceable(88) ptr @_ZN11doc_manager5fill1ER3doc(ptr noundef nonnull align 8 dereferenceable(1080) %this, ptr noundef nonnull returned align 8 dereferenceable(88) %src) local_unnamed_addr #3 align 2 {
entry:
  %m_neg.i = getelementptr inbounds i8, ptr %src, i64 8
  %m_pos.i.i = getelementptr inbounds i8, ptr %src, i64 16
  %0 = load i32, ptr %m_pos.i.i, align 8
  %cmp4.not.i = icmp eq i32 %0, 0
  br i1 %cmp4.not.i, label %_ZN10union_bvecI11tbv_manager3tbvE5resetERS0_.exit, label %for.body.i

for.body.i:                                       ; preds = %entry, %for.body.i
  %indvars.iv.i = phi i64 [ %indvars.iv.next.i, %for.body.i ], [ 0, %entry ]
  %1 = load ptr, ptr %m_neg.i, align 8
  %arrayidx.i.i = getelementptr inbounds ptr, ptr %1, i64 %indvars.iv.i
  %2 = load ptr, ptr %arrayidx.i.i, align 8
  tail call void @_ZN11tbv_manager10deallocateEP3tbv(ptr noundef nonnull align 8 dereferenceable(552) %this, ptr noundef %2)
  %indvars.iv.next.i = add nuw nsw i64 %indvars.iv.i, 1
  %3 = load i32, ptr %m_pos.i.i, align 8
  %4 = zext i32 %3 to i64
  %cmp.i = icmp ult i64 %indvars.iv.next.i, %4
  br i1 %cmp.i, label %for.body.i, label %_ZN10union_bvecI11tbv_manager3tbvE5resetERS0_.exit, !llvm.loop !8

_ZN10union_bvecI11tbv_manager3tbvE5resetERS0_.exit: ; preds = %for.body.i, %entry
  store i32 0, ptr %m_pos.i.i, align 8
  %5 = load ptr, ptr %src, align 8
  %call4 = tail call noundef nonnull align 4 dereferenceable(4) ptr @_ZNK11tbv_manager5fill1ER3tbv(ptr noundef nonnull align 8 dereferenceable(552) %this, ptr noundef nonnull align 4 dereferenceable(4) %5)
  ret ptr %src
}